target datalayout = "e-m:e-p270:32:32-p271:32:32-p272:64:64-i64:64-i128:128-f80:128-n8:16:32:64-S128"
target triple = "x86_64-pc-linux-gnu"

%struct._N_VectorContent_Serial = type { i64, i32, ptr }
%struct._generic_N_Vector = type { ptr, ptr }

; Function Attrs: nounwind uwtable
define void @N_VInv_Serial(ptr noundef %0, ptr noundef %1) #0 {
  %3 = alloca ptr, align 8
  %4 = alloca ptr, align 8
  %5 = alloca i64, align 8
  %6 = alloca i64, align 8
  %7 = alloca ptr, align 8
  %8 = alloca ptr, align 8
  store ptr %0, ptr %3, align 8, !tbaa !7
  store ptr %1, ptr %4, align 8, !tbaa !7
  call void @llvm.lifetime.start.p0(i64 8, ptr %5) #6
  call void @llvm.lifetime.start.p0(i64 8, ptr %6) #6
  call void @llvm.lifetime.start.p0(i64 8, ptr %7) #6
  call void @llvm.lifetime.start.p0(i64 8, ptr %8) #6
  store ptr null, ptr %8, align 8, !tbaa !49
  store ptr null, ptr %7, align 8, !tbaa !49
  %9 = load ptr, ptr %3, align 8, !tbaa !7
  %10 = getelementptr inbounds nuw %struct._generic_N_Vector, ptr %9, i32 0, i32 0
  %11 = load ptr, ptr %10, align 8, !tbaa !46
  %12 = getelementptr inbounds nuw %struct._N_VectorContent_Serial, ptr %11, i32 0, i32 0
  %13 = load i64, ptr %12, align 8, !tbaa !40
  store i64 %13, ptr %6, align 8, !tbaa !3
  %14 = load ptr, ptr %3, align 8, !tbaa !7
  %15 = getelementptr inbounds nuw %struct._generic_N_Vector, ptr %14, i32 0, i32 0
  %16 = load ptr, ptr %15, align 8, !tbaa !46
  %17 = getelementptr inbounds nuw %struct._N_VectorContent_Serial, ptr %16, i32 0, i32 2
  %18 = load ptr, ptr %17, align 8, !tbaa !45
  store ptr %18, ptr %7, align 8, !tbaa !49
  %19 = load ptr, ptr %4, align 8, !tbaa !7
  %20 = getelementptr inbounds nuw %struct._generic_N_Vector, ptr %19, i32 0, i32 0
  %21 = load ptr, ptr %20, align 8, !tbaa !46
  %22 = getelementptr inbounds nuw %struct._N_VectorContent_Serial, ptr %21, i32 0, i32 2
  %23 = load ptr, ptr %22, align 8, !tbaa !45
  store ptr %23, ptr %8, align 8, !tbaa !49
  store i64 0, ptr %5, align 8, !tbaa !3
  br label %24

24:                                               ; preds = %37, %2
  %25 = load i64, ptr %5, align 8, !tbaa !3
  %26 = load i64, ptr %6, align 8, !tbaa !3
  %27 = icmp slt i64 %25, %26
  br i1 %27, label %28, label %40

28:                                               ; preds = %24
  %29 = load ptr, ptr %7, align 8, !tbaa !49
  %30 = load i64, ptr %5, align 8, !tbaa !3
  %31 = getelementptr inbounds double, ptr %29, i64 %30
  %32 = load double, ptr %31, align 8, !tbaa !52
  %33 = fdiv double 1.000000e+00, %32
  %34 = load ptr, ptr %8, align 8, !tbaa !49
  %35 = load i64, ptr %5, align 8, !tbaa !3
  %36 = getelementptr inbounds double, ptr %34, i64 %35
  store double %33, ptr %36, align 8, !tbaa !52
  br label %37

37:                                               ; preds = %28
  %38 = load i64, ptr %5, align 8, !tbaa !3
  %39 = add nsw i64 %38, 1
  store i64 %39, ptr %5, align 8, !tbaa !3
  br label %24, !llvm.loop !62

40:                                               ; preds = %24
  call void @llvm.lifetime.end.p0(i64 8, ptr %8) #6
  call void @llvm.lifetime.end.p0(i64 8, ptr %7) #6
  call void @llvm.lifetime.end.p0(i64 8, ptr %6) #6
  call void @llvm.lifetime.end.p0(i64 8, ptr %5) #6
  ret void
}